; ModuleID = '29/676.c'
source_filename = "29/676.c"
target datalayout = "e-m:e-p270:32:32-p271:32:32-p272:64:64-i64:64-f80:128-n8:16:32:64-S128"
target triple = "x86_64-pc-linux-gnu"

@.str = private unnamed_addr constant [3 x i8] c"%d\00", align 1
@.str.1 = private unnamed_addr constant [6 x i8] c"%.3f\0A\00", align 1

; Function Attrs: noinline nounwind uwtable
define dso_local void @main() #0 {
  %1 = alloca i32, align 4
  %2 = alloca i32, align 4
  %3 = alloca i32, align 4
  %4 = alloca i32, align 4
  %5 = alloca float, align 4
  %6 = alloca float, align 4
  %7 = alloca [1000 x i32], align 16
  %8 = alloca [1000 x float], align 16
  %9 = alloca [100000 x float], align 16
  store float 0.000000e+00, float* %5, align 4
  %10 = call i32 (i8*, ...) @__isoc99_scanf(i8* getelementptr inbounds ([3 x i8], [3 x i8]* @.str, i64 0, i64 0), i32* %1)
  store i32 0, i32* %2, align 4
  br label %11

11:                                               ; preds = %20, %0
  %12 = load i32, i32* %2, align 4
  %13 = load i32, i32* %1, align 4
  %14 = icmp slt i32 %12, %13
  br i1 %14, label %15, label %23

15:                                               ; preds = %11
  %16 = load i32, i32* %2, align 4
  %17 = sext i32 %16 to i64
  %18 = getelementptr inbounds [1000 x i32], [1000 x i32]* %7, i64 0, i64 %17
  %19 = call i32 (i8*, ...) @__isoc99_scanf(i8* getelementptr inbounds ([3 x i8], [3 x i8]* @.str, i64 0, i64 0), i32* %18)
  br label %20

20:                                               ; preds = %15
  %21 = load i32, i32* %2, align 4
  %22 = add nsw i32 %21, 1
  store i32 %22, i32* %2, align 4
  br label %11

23:                                               ; preds = %11
  store i32 0, i32* %2, align 4
  store i32 0, i32* %3, align 4
  br label %24

24:                                               ; preds = %90, %23
  %25 = load i32, i32* %2, align 4
  %26 = load i32, i32* %1, align 4
  %27 = icmp slt i32 %25, %26
  %28 = zext i1 %27 to i32
  %29 = load i32, i32* %3, align 4
  %30 = load i32, i32* %1, align 4
  %31 = icmp slt i32 %29, %30
  br i1 %31, label %32, label %95

32:                                               ; preds = %24
  %33 = getelementptr inbounds [100000 x float], [100000 x float]* %9, i64 0, i64 0
  store float 1.000000e+00, float* %33, align 16
  %34 = getelementptr inbounds [100000 x float], [100000 x float]* %9, i64 0, i64 1
  store float 2.000000e+00, float* %34, align 4
  store i32 2, i32* %4, align 4
  br label %35

35:                                               ; preds = %57, %32
  %36 = load i32, i32* %4, align 4
  %37 = load i32, i32* %2, align 4
  %38 = sext i32 %37 to i64
  %39 = getelementptr inbounds [1000 x i32], [1000 x i32]* %7, i64 0, i64 %38
  %40 = load i32, i32* %39, align 4
  %41 = icmp sle i32 %36, %40
  br i1 %41, label %42, label %60

42:                                               ; preds = %35
  %43 = load i32, i32* %4, align 4
  %44 = sub nsw i32 %43, 1
  %45 = sext i32 %44 to i64
  %46 = getelementptr inbounds [100000 x float], [100000 x float]* %9, i64 0, i64 %45
  %47 = load float, float* %46, align 4
  %48 = load i32, i32* %4, align 4
  %49 = sub nsw i32 %48, 2
  %50 = sext i32 %49 to i64
  %51 = getelementptr inbounds [100000 x float], [100000 x float]* %9, i64 0, i64 %50
  %52 = load float, float* %51, align 4
  %53 = fadd float %47, %52
  %54 = load i32, i32* %4, align 4
  %55 = sext i32 %54 to i64
  %56 = getelementptr inbounds [100000 x float], [100000 x float]* %9, i64 0, i64 %55
  store float %53, float* %56, align 4
  br label %57

57:                                               ; preds = %42
  %58 = load i32, i32* %4, align 4
  %59 = add nsw i32 %58, 1
  store i32 %59, i32* %4, align 4
  br label %35

60:                                               ; preds = %35
  store i32 1, i32* %4, align 4
  br label %61

61:                                               ; preds = %82, %60
  %62 = load i32, i32* %4, align 4
  %63 = load i32, i32* %2, align 4
  %64 = sext i32 %63 to i64
  %65 = getelementptr inbounds [1000 x i32], [1000 x i32]* %7, i64 0, i64 %64
  %66 = load i32, i32* %65, align 4
  %67 = icmp sle i32 %62, %66
  br i1 %67, label %68, label %85

68:                                               ; preds = %61
  %69 = load i32, i32* %4, align 4
  %70 = sext i32 %69 to i64
  %71 = getelementptr inbounds [100000 x float], [100000 x float]* %9, i64 0, i64 %70
  %72 = load float, float* %71, align 4
  %73 = load i32, i32* %4, align 4
  %74 = sub nsw i32 %73, 1
  %75 = sext i32 %74 to i64
  %76 = getelementptr inbounds [100000 x float], [100000 x float]* %9, i64 0, i64 %75
  %77 = load float, float* %76, align 4
  %78 = fdiv float %72, %77
  store float %78, float* %6, align 4
  %79 = load float, float* %5, align 4
  %80 = load float, float* %6, align 4
  %81 = fadd float %79, %80
  store float %81, float* %5, align 4
  br label %82

82:                                               ; preds = %68
  %83 = load i32, i32* %4, align 4
  %84 = add nsw i32 %83, 1
  store i32 %84, i32* %4, align 4
  br label %61

85:                                               ; preds = %61
  %86 = load float, float* %5, align 4
  %87 = load i32, i32* %3, align 4
  %88 = sext i32 %87 to i64
  %89 = getelementptr inbounds [1000 x float], [1000 x float]* %8, i64 0, i64 %88
  store float %86, float* %89, align 4
  store float 0.000000e+00, float* %5, align 4
  br label %90

90:                                               ; preds = %85
  %91 = load i32, i32* %2, align 4
  %92 = add nsw i32 %91, 1
  store i32 %92, i32* %2, align 4
  %93 = load i32, i32* %3, align 4
  %94 = add nsw i32 %93, 1
  store i32 %94, i32* %3, align 4
  br label %24

95:                                               ; preds = %24
  store i32 0, i32* %3, align 4
  br label %96

96:                                               ; preds = %107, %95
  %97 = load i32, i32* %3, align 4
  %98 = load i32, i32* %1, align 4
  %99 = icmp slt i32 %97, %98
  br i1 %99, label %100, label %110

100:                                              ; preds = %96
  %101 = load i32, i32* %3, align 4
  %102 = sext i32 %101 to i64
  %103 = getelementptr inbounds [1000 x float], [1000 x float]* %8, i64 0, i64 %102
  %104 = load float, float* %103, align 4
  %105 = fpext float %104 to double
  %106 = call i32 (i8*, ...) @printf(i8* getelementptr inbounds ([6 x i8], [6 x i8]* @.str.1, i64 0, i64 0), double %105)
  br label %107

107:                                              ; preds = %100
  %108 = load i32, i32* %3, align 4
  %109 = add nsw i32 %108, 1
  store i32 %109, i32* %3, align 4
  br label %96

110:                                              ; preds = %96
  ret void
}

declare dso_local i32 @__isoc99_scanf(i8*, ...) #1

declare dso_local i32 @printf(i8*, ...) #1


!llvm.module.flags = !{!0}
!llvm.ident = !{!1}

!0 = !{i32 1, !"wchar_size", i32 4}
!1 = !{!"clang version 10.0.0-4ubuntu1 "}
